; Function Attrs: mustprogress nofree norecurse nosync nounwind willreturn memory(read, inaccessiblemem: none) uwtable
define { i64, ptr } @_ZNK4pkpy10SourceData8get_lineEi(ptr nocapture noundef nonnull readonly align 8 dereferenceable(120) %0, i32 noundef %1) local_unnamed_addr #5 align 2 personality ptr @__gxx_personality_v0 {
  %3 = getelementptr inbounds i8, ptr %0, i64 88
  %4 = load i8, ptr %3, align 8
  %5 = trunc i8 %4 to i1
  %6 = icmp eq i32 %1, -1
  %or.cond.i = or i1 %6, %5
  br i1 %or.cond.i, label %_ZNK4pkpy10SourceData9_get_lineEi.exit.thread, label %7

7:                                                ; preds = %2
  %8 = tail call i32 @llvm.smax.i32(i32 %1, i32 1)
  %9 = getelementptr inbounds i8, ptr %0, i64 80
  %10 = load ptr, ptr %9, align 8
  %11 = zext nneg i32 %8 to i64
  %12 = getelementptr ptr, ptr %10, i64 %11
  %13 = getelementptr i8, ptr %12, i64 -8
  %14 = load ptr, ptr %13, align 8
  %15 = ptrtoint ptr %14 to i64
  %scevgep.i = getelementptr i8, ptr %14, i64 300
  br label %16

16:                                               ; preds = %22, %7
  %storemerge.i = phi ptr [ %14, %7 ], [ %23, %22 ]
  %17 = load i8, ptr %storemerge.i, align 1
  switch i8 %17, label %18 [
    i8 10, label %_ZNK4pkpy10SourceData9_get_lineEi.exit
    i8 0, label %_ZNK4pkpy10SourceData9_get_lineEi.exit
  ]

18:                                               ; preds = %16
  %19 = ptrtoint ptr %storemerge.i to i64
  %20 = sub i64 %19, %15
  %21 = icmp slt i64 %20, 300
  br i1 %21, label %22, label %_ZNK4pkpy10SourceData9_get_lineEi.exit

22:                                               ; preds = %18
  %23 = getelementptr inbounds i8, ptr %storemerge.i, i64 1
  br label %16, !llvm.loop !7

_ZNK4pkpy10SourceData9_get_lineEi.exit:           ; preds = %16, %16, %18
  %.sroa.3.0.i = phi ptr [ %scevgep.i, %18 ], [ %storemerge.i, %16 ], [ %storemerge.i, %16 ]
  %.not = icmp eq ptr %14, null
  %.not7 = icmp eq ptr %.sroa.3.0.i, null
  %or.cond = select i1 %.not, i1 true, i1 %.not7
  br i1 %or.cond, label %_ZNK4pkpy10SourceData9_get_lineEi.exit.thread, label %24

24:                                               ; preds = %_ZNK4pkpy10SourceData9_get_lineEi.exit
  %25 = ptrtoint ptr %.sroa.3.0.i to i64
  %26 = sub i64 %25, %15
  br label %_ZNK4pkpy10SourceData9_get_lineEi.exit.thread

_ZNK4pkpy10SourceData9_get_lineEi.exit.thread:    ; preds = %_ZNK4pkpy10SourceData9_get_lineEi.exit, %2, %24
  %.sroa.08.0 = phi i64 [ %26, %24 ], [ 3, %2 ], [ 3, %_ZNK4pkpy10SourceData9_get_lineEi.exit ]
  %.sroa.3.0 = phi ptr [ %14, %24 ], [ @.str.2, %2 ], [ @.str.2, %_ZNK4pkpy10SourceData9_get_lineEi.exit ]
  %.fca.0.insert = insertvalue { i64, ptr } poison, i64 %.sroa.08.0, 0
  %.fca.1.insert = insertvalue { i64, ptr } %.fca.0.insert, ptr %.sroa.3.0, 1
  ret { i64, ptr } %.fca.1.insert
}